
hunting:     file format elf32-i386


Disassembly of section .init:

00001000 <.init>:
    1000:	f3 0f 1e fb          	endbr32 
    1004:	53                   	push   %ebx
    1005:	83 ec 08             	sub    $0x8,%esp
    1008:	e8 33 02 00 00       	call   1240 <close@plt+0x50>
    100d:	81 c3 9b 2f 00 00    	add    $0x2f9b,%ebx
    1013:	8b 83 48 00 00 00    	mov    0x48(%ebx),%eax
    1019:	85 c0                	test   %eax,%eax
    101b:	74 02                	je     101f <__cxa_finalize@plt-0xf1>
    101d:	ff d0                	call   *%eax
    101f:	83 c4 08             	add    $0x8,%esp
    1022:	5b                   	pop    %ebx
    1023:	c3                   	ret    

Disassembly of section .plt:

00001030 <.plt>:
    1030:	ff b3 04 00 00 00    	push   0x4(%ebx)
    1036:	ff a3 08 00 00 00    	jmp    *0x8(%ebx)
    103c:	0f 1f 40 00          	nopl   0x0(%eax)
    1040:	f3 0f 1e fb          	endbr32 
    1044:	68 00 00 00 00       	push   $0x0
    1049:	e9 e2 ff ff ff       	jmp    1030 <__cxa_finalize@plt-0xe0>
    104e:	66 90                	xchg   %ax,%ax
    1050:	f3 0f 1e fb          	endbr32 
    1054:	68 08 00 00 00       	push   $0x8
    1059:	e9 d2 ff ff ff       	jmp    1030 <__cxa_finalize@plt-0xe0>
    105e:	66 90                	xchg   %ax,%ax
    1060:	f3 0f 1e fb          	endbr32 
    1064:	68 10 00 00 00       	push   $0x10
    1069:	e9 c2 ff ff ff       	jmp    1030 <__cxa_finalize@plt-0xe0>
    106e:	66 90                	xchg   %ax,%ax
    1070:	f3 0f 1e fb          	endbr32 
    1074:	68 18 00 00 00       	push   $0x18
    1079:	e9 b2 ff ff ff       	jmp    1030 <__cxa_finalize@plt-0xe0>
    107e:	66 90                	xchg   %ax,%ax
    1080:	f3 0f 1e fb          	endbr32 
    1084:	68 20 00 00 00       	push   $0x20
    1089:	e9 a2 ff ff ff       	jmp    1030 <__cxa_finalize@plt-0xe0>
    108e:	66 90                	xchg   %ax,%ax
    1090:	f3 0f 1e fb          	endbr32 
    1094:	68 28 00 00 00       	push   $0x28
    1099:	e9 92 ff ff ff       	jmp    1030 <__cxa_finalize@plt-0xe0>
    109e:	66 90                	xchg   %ax,%ax
    10a0:	f3 0f 1e fb          	endbr32 
    10a4:	68 30 00 00 00       	push   $0x30
    10a9:	e9 82 ff ff ff       	jmp    1030 <__cxa_finalize@plt-0xe0>
    10ae:	66 90                	xchg   %ax,%ax
    10b0:	f3 0f 1e fb          	endbr32 
    10b4:	68 38 00 00 00       	push   $0x38
    10b9:	e9 72 ff ff ff       	jmp    1030 <__cxa_finalize@plt-0xe0>
    10be:	66 90                	xchg   %ax,%ax
    10c0:	f3 0f 1e fb          	endbr32 
    10c4:	68 40 00 00 00       	push   $0x40
    10c9:	e9 62 ff ff ff       	jmp    1030 <__cxa_finalize@plt-0xe0>
    10ce:	66 90                	xchg   %ax,%ax
    10d0:	f3 0f 1e fb          	endbr32 
    10d4:	68 48 00 00 00       	push   $0x48
    10d9:	e9 52 ff ff ff       	jmp    1030 <__cxa_finalize@plt-0xe0>
    10de:	66 90                	xchg   %ax,%ax
    10e0:	f3 0f 1e fb          	endbr32 
    10e4:	68 50 00 00 00       	push   $0x50
    10e9:	e9 42 ff ff ff       	jmp    1030 <__cxa_finalize@plt-0xe0>
    10ee:	66 90                	xchg   %ax,%ax
    10f0:	f3 0f 1e fb          	endbr32 
    10f4:	68 58 00 00 00       	push   $0x58
    10f9:	e9 32 ff ff ff       	jmp    1030 <__cxa_finalize@plt-0xe0>
    10fe:	66 90                	xchg   %ax,%ax
    1100:	f3 0f 1e fb          	endbr32 
    1104:	68 60 00 00 00       	push   $0x60
    1109:	e9 22 ff ff ff       	jmp    1030 <__cxa_finalize@plt-0xe0>
    110e:	66 90                	xchg   %ax,%ax

Disassembly of section .plt.got:

00001110 <__cxa_finalize@plt>:
    1110:	f3 0f 1e fb          	endbr32 
    1114:	ff a3 44 00 00 00    	jmp    *0x44(%ebx)
    111a:	66 0f 1f 44 00 00    	nopw   0x0(%eax,%eax,1)

00001120 <exit@plt>:
    1120:	f3 0f 1e fb          	endbr32 
    1124:	ff a3 4c 00 00 00    	jmp    *0x4c(%ebx)
    112a:	66 0f 1f 44 00 00    	nopw   0x0(%eax,%eax,1)

Disassembly of section .plt.sec:

00001130 <read@plt>:
    1130:	f3 0f 1e fb          	endbr32 
    1134:	ff a3 0c 00 00 00    	jmp    *0xc(%ebx)
    113a:	66 0f 1f 44 00 00    	nopw   0x0(%eax,%eax,1)

00001140 <signal@plt>:
    1140:	f3 0f 1e fb          	endbr32 
    1144:	ff a3 10 00 00 00    	jmp    *0x10(%ebx)
    114a:	66 0f 1f 44 00 00    	nopw   0x0(%eax,%eax,1)

00001150 <alarm@plt>:
    1150:	f3 0f 1e fb          	endbr32 
    1154:	ff a3 14 00 00 00    	jmp    *0x14(%ebx)
    115a:	66 0f 1f 44 00 00    	nopw   0x0(%eax,%eax,1)

00001160 <perror@plt>:
    1160:	f3 0f 1e fb          	endbr32 
    1164:	ff a3 18 00 00 00    	jmp    *0x18(%ebx)
    116a:	66 0f 1f 44 00 00    	nopw   0x0(%eax,%eax,1)

00001170 <strcpy@plt>:
    1170:	f3 0f 1e fb          	endbr32 
    1174:	ff a3 1c 00 00 00    	jmp    *0x1c(%ebx)
    117a:	66 0f 1f 44 00 00    	nopw   0x0(%eax,%eax,1)

00001180 <open@plt>:
    1180:	f3 0f 1e fb          	endbr32 
    1184:	ff a3 20 00 00 00    	jmp    *0x20(%ebx)
    118a:	66 0f 1f 44 00 00    	nopw   0x0(%eax,%eax,1)

00001190 <srand@plt>:
    1190:	f3 0f 1e fb          	endbr32 
    1194:	ff a3 24 00 00 00    	jmp    *0x24(%ebx)
    119a:	66 0f 1f 44 00 00    	nopw   0x0(%eax,%eax,1)

000011a0 <mmap@plt>:
    11a0:	f3 0f 1e fb          	endbr32 
    11a4:	ff a3 28 00 00 00    	jmp    *0x28(%ebx)
    11aa:	66 0f 1f 44 00 00    	nopw   0x0(%eax,%eax,1)

000011b0 <__libc_start_main@plt>:
    11b0:	f3 0f 1e fb          	endbr32 
    11b4:	ff a3 2c 00 00 00    	jmp    *0x2c(%ebx)
    11ba:	66 0f 1f 44 00 00    	nopw   0x0(%eax,%eax,1)

000011c0 <memset@plt>:
    11c0:	f3 0f 1e fb          	endbr32 
    11c4:	ff a3 30 00 00 00    	jmp    *0x30(%ebx)
    11ca:	66 0f 1f 44 00 00    	nopw   0x0(%eax,%eax,1)

000011d0 <prctl@plt>:
    11d0:	f3 0f 1e fb          	endbr32 
    11d4:	ff a3 34 00 00 00    	jmp    *0x34(%ebx)
    11da:	66 0f 1f 44 00 00    	nopw   0x0(%eax,%eax,1)

000011e0 <rand@plt>:
    11e0:	f3 0f 1e fb          	endbr32 
    11e4:	ff a3 38 00 00 00    	jmp    *0x38(%ebx)
    11ea:	66 0f 1f 44 00 00    	nopw   0x0(%eax,%eax,1)

000011f0 <close@plt>:
    11f0:	f3 0f 1e fb          	endbr32 
    11f4:	ff a3 3c 00 00 00    	jmp    *0x3c(%ebx)
    11fa:	66 0f 1f 44 00 00    	nopw   0x0(%eax,%eax,1)

Disassembly of section .text:

00001200 <.text>:
    1200:	f3 0f 1e fb          	endbr32 
    1204:	31 ed                	xor    %ebp,%ebp
    1206:	5e                   	pop    %esi
    1207:	89 e1                	mov    %esp,%ecx
    1209:	83 e4 f0             	and    $0xfffffff0,%esp
    120c:	50                   	push   %eax
    120d:	54                   	push   %esp
    120e:	52                   	push   %edx
    120f:	e8 22 00 00 00       	call   1236 <close@plt+0x46>
    1214:	81 c3 94 2d 00 00    	add    $0x2d94,%ebx
    121a:	8d 83 28 d6 ff ff    	lea    -0x29d8(%ebx),%eax
    1220:	50                   	push   %eax
    1221:	8d 83 b8 d5 ff ff    	lea    -0x2a48(%ebx),%eax
    1227:	50                   	push   %eax
    1228:	51                   	push   %ecx
    1229:	56                   	push   %esi
    122a:	ff b3 50 00 00 00    	push   0x50(%ebx)
    1230:	e8 7b ff ff ff       	call   11b0 <__libc_start_main@plt>
    1235:	f4                   	hlt    
    1236:	8b 1c 24             	mov    (%esp),%ebx
    1239:	c3                   	ret    
    123a:	66 90                	xchg   %ax,%ax
    123c:	66 90                	xchg   %ax,%ax
    123e:	66 90                	xchg   %ax,%ax
    1240:	8b 1c 24             	mov    (%esp),%ebx
    1243:	c3                   	ret    
    1244:	66 90                	xchg   %ax,%ax
    1246:	66 90                	xchg   %ax,%ax
    1248:	66 90                	xchg   %ax,%ax
    124a:	66 90                	xchg   %ax,%ax
    124c:	66 90                	xchg   %ax,%ax
    124e:	66 90                	xchg   %ax,%ax
    1250:	e8 e4 00 00 00       	call   1339 <close@plt+0x149>
    1255:	81 c2 53 2d 00 00    	add    $0x2d53,%edx
    125b:	8d 8a 28 01 00 00    	lea    0x128(%edx),%ecx
    1261:	8d 82 28 01 00 00    	lea    0x128(%edx),%eax
    1267:	39 c8                	cmp    %ecx,%eax
    1269:	74 1d                	je     1288 <close@plt+0x98>
    126b:	8b 82 40 00 00 00    	mov    0x40(%edx),%eax
    1271:	85 c0                	test   %eax,%eax
    1273:	74 13                	je     1288 <close@plt+0x98>
    1275:	55                   	push   %ebp
    1276:	89 e5                	mov    %esp,%ebp
    1278:	83 ec 14             	sub    $0x14,%esp
    127b:	51                   	push   %ecx
    127c:	ff d0                	call   *%eax
    127e:	83 c4 10             	add    $0x10,%esp
    1281:	c9                   	leave  
    1282:	c3                   	ret    
    1283:	8d 74 26 00          	lea    0x0(%esi,%eiz,1),%esi
    1287:	90                   	nop
    1288:	c3                   	ret    
    1289:	8d b4 26 00 00 00 00 	lea    0x0(%esi,%eiz,1),%esi
    1290:	e8 a4 00 00 00       	call   1339 <close@plt+0x149>
    1295:	81 c2 13 2d 00 00    	add    $0x2d13,%edx
    129b:	55                   	push   %ebp
    129c:	89 e5                	mov    %esp,%ebp
    129e:	53                   	push   %ebx
    129f:	8d 8a 28 01 00 00    	lea    0x128(%edx),%ecx
    12a5:	8d 82 28 01 00 00    	lea    0x128(%edx),%eax
    12ab:	83 ec 04             	sub    $0x4,%esp
    12ae:	29 c8                	sub    %ecx,%eax
    12b0:	89 c3                	mov    %eax,%ebx
    12b2:	c1 e8 1f             	shr    $0x1f,%eax
    12b5:	c1 fb 02             	sar    $0x2,%ebx
    12b8:	01 d8                	add    %ebx,%eax
    12ba:	d1 f8                	sar    %eax
    12bc:	74 14                	je     12d2 <close@plt+0xe2>
    12be:	8b 92 54 00 00 00    	mov    0x54(%edx),%edx
    12c4:	85 d2                	test   %edx,%edx
    12c6:	74 0a                	je     12d2 <close@plt+0xe2>
    12c8:	83 ec 08             	sub    $0x8,%esp
    12cb:	50                   	push   %eax
    12cc:	51                   	push   %ecx
    12cd:	ff d2                	call   *%edx
    12cf:	83 c4 10             	add    $0x10,%esp
    12d2:	8b 5d fc             	mov    -0x4(%ebp),%ebx
    12d5:	c9                   	leave  
    12d6:	c3                   	ret    
    12d7:	8d b4 26 00 00 00 00 	lea    0x0(%esi,%eiz,1),%esi
    12de:	66 90                	xchg   %ax,%ax
    12e0:	f3 0f 1e fb          	endbr32 
    12e4:	55                   	push   %ebp
    12e5:	89 e5                	mov    %esp,%ebp
    12e7:	53                   	push   %ebx
    12e8:	e8 53 ff ff ff       	call   1240 <close@plt+0x50>
    12ed:	81 c3 bb 2c 00 00    	add    $0x2cbb,%ebx
    12f3:	83 ec 04             	sub    $0x4,%esp
    12f6:	80 bb 28 01 00 00 00 	cmpb   $0x0,0x128(%ebx)
    12fd:	75 27                	jne    1326 <close@plt+0x136>
    12ff:	8b 83 44 00 00 00    	mov    0x44(%ebx),%eax
    1305:	85 c0                	test   %eax,%eax
    1307:	74 11                	je     131a <close@plt+0x12a>
    1309:	83 ec 0c             	sub    $0xc,%esp
    130c:	ff b3 5c 00 00 00    	push   0x5c(%ebx)
    1312:	e8 f9 fd ff ff       	call   1110 <__cxa_finalize@plt>
    1317:	83 c4 10             	add    $0x10,%esp
    131a:	e8 31 ff ff ff       	call   1250 <close@plt+0x60>
    131f:	c6 83 28 01 00 00 01 	movb   $0x1,0x128(%ebx)
    1326:	8b 5d fc             	mov    -0x4(%ebp),%ebx
    1329:	c9                   	leave  
    132a:	c3                   	ret    
    132b:	8d 74 26 00          	lea    0x0(%esi,%eiz,1),%esi
    132f:	90                   	nop
    1330:	f3 0f 1e fb          	endbr32 
    1334:	e9 57 ff ff ff       	jmp    1290 <close@plt+0xa0>
    1339:	8b 14 24             	mov    (%esp),%edx
    133c:	c3                   	ret    
    133d:	f3 0f 1e fb          	endbr32 
    1341:	55                   	push   %ebp
    1342:	89 e5                	mov    %esp,%ebp
    1344:	53                   	push   %ebx
    1345:	83 ec 14             	sub    $0x14,%esp
    1348:	e8 f3 fe ff ff       	call   1240 <close@plt+0x50>
    134d:	81 c3 5b 2c 00 00    	add    $0x2c5b,%ebx
    1353:	66 c7 45 f0 0e 00    	movw   $0xe,-0x10(%ebp)
    1359:	8d 83 b8 00 00 00    	lea    0xb8(%ebx),%eax
    135f:	89 45 f4             	mov    %eax,-0xc(%ebp)
    1362:	83 ec 0c             	sub    $0xc,%esp
    1365:	6a 00                	push   $0x0
    1367:	6a 00                	push   $0x0
    1369:	6a 00                	push   $0x0
    136b:	6a 01                	push   $0x1
    136d:	6a 26                	push   $0x26
    136f:	e8 5c fe ff ff       	call   11d0 <prctl@plt>
    1374:	83 c4 20             	add    $0x20,%esp
    1377:	85 c0                	test   %eax,%eax
    1379:	79 1c                	jns    1397 <close@plt+0x1a7>
    137b:	83 ec 0c             	sub    $0xc,%esp
    137e:	8d 83 60 e0 ff ff    	lea    -0x1fa0(%ebx),%eax
    1384:	50                   	push   %eax
    1385:	e8 d6 fd ff ff       	call   1160 <perror@plt>
    138a:	83 c4 10             	add    $0x10,%esp
    138d:	83 ec 0c             	sub    $0xc,%esp
    1390:	6a 02                	push   $0x2
    1392:	e8 89 fd ff ff       	call   1120 <exit@plt>
    1397:	83 ec 04             	sub    $0x4,%esp
    139a:	8d 45 f0             	lea    -0x10(%ebp),%eax
    139d:	50                   	push   %eax
    139e:	6a 02                	push   $0x2
    13a0:	6a 16                	push   $0x16
    13a2:	e8 29 fe ff ff       	call   11d0 <prctl@plt>
    13a7:	83 c4 10             	add    $0x10,%esp
    13aa:	85 c0                	test   %eax,%eax
    13ac:	79 1c                	jns    13ca <close@plt+0x1da>
    13ae:	83 ec 0c             	sub    $0xc,%esp
    13b1:	8d 83 7b e0 ff ff    	lea    -0x1f85(%ebx),%eax
    13b7:	50                   	push   %eax
    13b8:	e8 a3 fd ff ff       	call   1160 <perror@plt>
    13bd:	83 c4 10             	add    $0x10,%esp
    13c0:	83 ec 0c             	sub    $0xc,%esp
    13c3:	6a 02                	push   $0x2
    13c5:	e8 56 fd ff ff       	call   1120 <exit@plt>
    13ca:	90                   	nop
    13cb:	8b 5d fc             	mov    -0x4(%ebp),%ebx
    13ce:	c9                   	leave  
    13cf:	c3                   	ret    
    13d0:	f3 0f 1e fb          	endbr32 
    13d4:	55                   	push   %ebp
    13d5:	89 e5                	mov    %esp,%ebp
    13d7:	53                   	push   %ebx
    13d8:	83 ec 14             	sub    $0x14,%esp
    13db:	e8 60 fe ff ff       	call   1240 <close@plt+0x50>
    13e0:	81 c3 c8 2b 00 00    	add    $0x2bc8,%ebx
    13e6:	83 ec 08             	sub    $0x8,%esp
    13e9:	6a 00                	push   $0x0
    13eb:	8d 83 91 e0 ff ff    	lea    -0x1f6f(%ebx),%eax
    13f1:	50                   	push   %eax
    13f2:	e8 89 fd ff ff       	call   1180 <open@plt>
    13f7:	83 c4 10             	add    $0x10,%esp
    13fa:	89 45 f0             	mov    %eax,-0x10(%ebp)
    13fd:	83 ec 04             	sub    $0x4,%esp
    1400:	6a 08                	push   $0x8
    1402:	8d 45 e8             	lea    -0x18(%ebp),%eax
    1405:	50                   	push   %eax
    1406:	ff 75 f0             	push   -0x10(%ebp)
    1409:	e8 22 fd ff ff       	call   1130 <read@plt>
    140e:	83 c4 10             	add    $0x10,%esp
    1411:	83 ec 0c             	sub    $0xc,%esp
    1414:	ff 75 f0             	push   -0x10(%ebp)
    1417:	e8 d4 fd ff ff       	call   11f0 <close@plt>
    141c:	83 c4 10             	add    $0x10,%esp
    141f:	8b 45 e8             	mov    -0x18(%ebp),%eax
    1422:	8b 55 ec             	mov    -0x14(%ebp),%edx
    1425:	83 ec 0c             	sub    $0xc,%esp
    1428:	50                   	push   %eax
    1429:	e8 62 fd ff ff       	call   1190 <srand@plt>
    142e:	83 c4 10             	add    $0x10,%esp
    1431:	c7 45 f4 00 00 00 00 	movl   $0x0,-0xc(%ebp)
    1438:	eb 0b                	jmp    1445 <close@plt+0x255>
    143a:	e8 a1 fd ff ff       	call   11e0 <rand@plt>
    143f:	c1 e0 10             	shl    $0x10,%eax
    1442:	89 45 f4             	mov    %eax,-0xc(%ebp)
    1445:	81 7d f4 ff ff ff 5f 	cmpl   $0x5fffffff,-0xc(%ebp)
    144c:	7e ec                	jle    143a <close@plt+0x24a>
    144e:	8b 45 f4             	mov    -0xc(%ebp),%eax
    1451:	3d 00 00 00 f7       	cmp    $0xf7000000,%eax
    1456:	77 e2                	ja     143a <close@plt+0x24a>
    1458:	8b 45 f4             	mov    -0xc(%ebp),%eax
    145b:	8b 5d fc             	mov    -0x4(%ebp),%ebx
    145e:	c9                   	leave  
    145f:	c3                   	ret    
    1460:	f3 0f 1e fb          	endbr32 
    1464:	8d 4c 24 04          	lea    0x4(%esp),%ecx
    1468:	83 e4 f0             	and    $0xfffffff0,%esp
    146b:	ff 71 fc             	push   -0x4(%ecx)
    146e:	55                   	push   %ebp
    146f:	89 e5                	mov    %esp,%ebp
    1471:	53                   	push   %ebx
    1472:	51                   	push   %ecx
    1473:	83 ec 10             	sub    $0x10,%esp
    1476:	e8 c5 fd ff ff       	call   1240 <close@plt+0x50>
    147b:	81 c3 2d 2b 00 00    	add    $0x2b2d,%ebx
    1481:	e8 4a ff ff ff       	call   13d0 <close@plt+0x1e0>
    1486:	89 45 f4             	mov    %eax,-0xc(%ebp)
    1489:	83 ec 08             	sub    $0x8,%esp
    148c:	8b 83 4c 00 00 00    	mov    0x4c(%ebx),%eax
    1492:	50                   	push   %eax
    1493:	6a 0e                	push   $0xe
    1495:	e8 a6 fc ff ff       	call   1140 <signal@plt>
    149a:	83 c4 10             	add    $0x10,%esp
    149d:	83 ec 0c             	sub    $0xc,%esp
    14a0:	6a 0a                	push   $0xa
    14a2:	e8 a9 fc ff ff       	call   1150 <alarm@plt>
    14a7:	83 c4 10             	add    $0x10,%esp
    14aa:	8b 45 f4             	mov    -0xc(%ebp),%eax
    14ad:	83 ec 08             	sub    $0x8,%esp
    14b0:	6a 00                	push   $0x0
    14b2:	6a ff                	push   $0xffffffff
    14b4:	6a 31                	push   $0x31
    14b6:	6a 03                	push   $0x3
    14b8:	68 00 10 00 00       	push   $0x1000
    14bd:	50                   	push   %eax
    14be:	e8 dd fc ff ff       	call   11a0 <mmap@plt>
    14c3:	83 c4 20             	add    $0x20,%esp
    14c6:	89 45 f0             	mov    %eax,-0x10(%ebp)
    14c9:	83 7d f0 ff          	cmpl   $0xffffffff,-0x10(%ebp)
    14cd:	75 0a                	jne    14d9 <close@plt+0x2e9>
    14cf:	83 ec 0c             	sub    $0xc,%esp
    14d2:	6a ff                	push   $0xffffffff
    14d4:	e8 47 fc ff ff       	call   1120 <exit@plt>
    14d9:	83 ec 08             	sub    $0x8,%esp
    14dc:	8d 83 78 00 00 00    	lea    0x78(%ebx),%eax
    14e2:	50                   	push   %eax
    14e3:	ff 75 f0             	push   -0x10(%ebp)
    14e6:	e8 85 fc ff ff       	call   1170 <strcpy@plt>
    14eb:	83 c4 10             	add    $0x10,%esp
    14ee:	83 ec 04             	sub    $0x4,%esp
    14f1:	6a 25                	push   $0x25
    14f3:	6a 00                	push   $0x0
    14f5:	8d 83 78 00 00 00    	lea    0x78(%ebx),%eax
    14fb:	50                   	push   %eax
    14fc:	e8 bf fc ff ff       	call   11c0 <memset@plt>
    1501:	83 c4 10             	add    $0x10,%esp
    1504:	c7 45 f0 00 00 00 00 	movl   $0x0,-0x10(%ebp)
    150b:	e8 2d fe ff ff       	call   133d <close@plt+0x14d>
    1510:	83 ec 08             	sub    $0x8,%esp
    1513:	6a 00                	push   $0x0
    1515:	6a ff                	push   $0xffffffff
    1517:	6a 21                	push   $0x21
    1519:	6a 07                	push   $0x7
    151b:	68 00 10 00 00       	push   $0x1000
    1520:	6a 00                	push   $0x0
    1522:	e8 79 fc ff ff       	call   11a0 <mmap@plt>
    1527:	83 c4 20             	add    $0x20,%esp
    152a:	89 45 ec             	mov    %eax,-0x14(%ebp)
    152d:	83 ec 04             	sub    $0x4,%esp
    1530:	6a 3c                	push   $0x3c
    1532:	ff 75 ec             	push   -0x14(%ebp)
    1535:	6a 00                	push   $0x0
    1537:	e8 f4 fb ff ff       	call   1130 <read@plt>
    153c:	83 c4 10             	add    $0x10,%esp
    153f:	c7 44 24 0c 00 00 00 	movl   $0x0,0xc(%esp)
    1546:	00 
    1547:	8b 45 ec             	mov    -0x14(%ebp),%eax
    154a:	ff d0                	call   *%eax
    154c:	b8 00 00 00 00       	mov    $0x0,%eax
    1551:	8d 65 f8             	lea    -0x8(%ebp),%esp
    1554:	59                   	pop    %ecx
    1555:	5b                   	pop    %ebx
    1556:	5d                   	pop    %ebp
    1557:	8d 61 fc             	lea    -0x4(%ecx),%esp
    155a:	c3                   	ret    
    155b:	66 90                	xchg   %ax,%ax
    155d:	66 90                	xchg   %ax,%ax
    155f:	90                   	nop
    1560:	f3 0f 1e fb          	endbr32 
    1564:	55                   	push   %ebp
    1565:	e8 6b 00 00 00       	call   15d5 <close@plt+0x3e5>
    156a:	81 c5 3e 2a 00 00    	add    $0x2a3e,%ebp
    1570:	57                   	push   %edi
    1571:	56                   	push   %esi
    1572:	53                   	push   %ebx
    1573:	83 ec 0c             	sub    $0xc,%esp
    1576:	89 eb                	mov    %ebp,%ebx
    1578:	8b 7c 24 28          	mov    0x28(%esp),%edi
    157c:	e8 7f fa ff ff       	call   1000 <__cxa_finalize@plt-0x110>
    1581:	8d 9d 04 ff ff ff    	lea    -0xfc(%ebp),%ebx
    1587:	8d 85 00 ff ff ff    	lea    -0x100(%ebp),%eax
    158d:	29 c3                	sub    %eax,%ebx
    158f:	c1 fb 02             	sar    $0x2,%ebx
    1592:	74 29                	je     15bd <close@plt+0x3cd>
    1594:	31 f6                	xor    %esi,%esi
    1596:	8d b4 26 00 00 00 00 	lea    0x0(%esi,%eiz,1),%esi
    159d:	8d 76 00             	lea    0x0(%esi),%esi
    15a0:	83 ec 04             	sub    $0x4,%esp
    15a3:	57                   	push   %edi
    15a4:	ff 74 24 2c          	push   0x2c(%esp)
    15a8:	ff 74 24 2c          	push   0x2c(%esp)
    15ac:	ff 94 b5 00 ff ff ff 	call   *-0x100(%ebp,%esi,4)
    15b3:	83 c6 01             	add    $0x1,%esi
    15b6:	83 c4 10             	add    $0x10,%esp
    15b9:	39 f3                	cmp    %esi,%ebx
    15bb:	75 e3                	jne    15a0 <close@plt+0x3b0>
    15bd:	83 c4 0c             	add    $0xc,%esp
    15c0:	5b                   	pop    %ebx
    15c1:	5e                   	pop    %esi
    15c2:	5f                   	pop    %edi
    15c3:	5d                   	pop    %ebp
    15c4:	c3                   	ret    
    15c5:	8d b4 26 00 00 00 00 	lea    0x0(%esi,%eiz,1),%esi
    15cc:	8d 74 26 00          	lea    0x0(%esi,%eiz,1),%esi
    15d0:	f3 0f 1e fb          	endbr32 
    15d4:	c3                   	ret    
    15d5:	8b 2c 24             	mov    (%esp),%ebp
    15d8:	c3                   	ret    

Disassembly of section .fini:

000015dc <.fini>:
    15dc:	f3 0f 1e fb          	endbr32 
    15e0:	53                   	push   %ebx
    15e1:	83 ec 08             	sub    $0x8,%esp
    15e4:	e8 57 fc ff ff       	call   1240 <close@plt+0x50>
    15e9:	81 c3 bf 29 00 00    	add    $0x29bf,%ebx
    15ef:	83 c4 08             	add    $0x8,%esp
    15f2:	5b                   	pop    %ebx
    15f3:	c3                   	ret    
