
search:     file format elf32-i386


Disassembly of section .init:

08049000 <_init>:
 8049000:	53                   	push   %ebx
 8049001:	83 ec 08             	sub    $0x8,%esp
 8049004:	e8 c7 00 00 00       	call   80490d0 <__x86.get_pc_thunk.bx>
 8049009:	81 c3 f7 2f 00 00    	add    $0x2ff7,%ebx
 804900f:	8b 83 fc ff ff ff    	mov    -0x4(%ebx),%eax
 8049015:	85 c0                	test   %eax,%eax
 8049017:	74 05                	je     804901e <_init+0x1e>
 8049019:	e8 52 00 00 00       	call   8049070 <__gmon_start__@plt>
 804901e:	83 c4 08             	add    $0x8,%esp
 8049021:	5b                   	pop    %ebx
 8049022:	c3                   	ret    

Disassembly of section .plt:

08049030 <__libc_start_main@plt-0x10>:
 8049030:	ff 35 04 c0 04 08    	push   0x804c004
 8049036:	ff 25 08 c0 04 08    	jmp    *0x804c008
 804903c:	00 00                	add    %al,(%eax)
	...

08049040 <__libc_start_main@plt>:
 8049040:	ff 25 0c c0 04 08    	jmp    *0x804c00c
 8049046:	68 00 00 00 00       	push   $0x0
 804904b:	e9 e0 ff ff ff       	jmp    8049030 <_init+0x30>

08049050 <write@plt>:
 8049050:	ff 25 10 c0 04 08    	jmp    *0x804c010
 8049056:	68 08 00 00 00       	push   $0x8
 804905b:	e9 d0 ff ff ff       	jmp    8049030 <_init+0x30>

08049060 <access@plt>:
 8049060:	ff 25 14 c0 04 08    	jmp    *0x804c014
 8049066:	68 10 00 00 00       	push   $0x10
 804906b:	e9 c0 ff ff ff       	jmp    8049030 <_init+0x30>

Disassembly of section .plt.got:

08049070 <__gmon_start__@plt>:
 8049070:	ff 25 fc bf 04 08    	jmp    *0x804bffc
 8049076:	66 90                	xchg   %ax,%ax

Disassembly of section .text:

08049080 <_start>:
 8049080:	31 ed                	xor    %ebp,%ebp
 8049082:	5e                   	pop    %esi
 8049083:	89 e1                	mov    %esp,%ecx
 8049085:	83 e4 f0             	and    $0xfffffff0,%esp
 8049088:	50                   	push   %eax
 8049089:	54                   	push   %esp
 804908a:	52                   	push   %edx
 804908b:	e8 23 00 00 00       	call   80490b3 <_start+0x33>
 8049090:	81 c3 70 2f 00 00    	add    $0x2f70,%ebx
 8049096:	8d 83 90 d2 ff ff    	lea    -0x2d70(%ebx),%eax
 804909c:	50                   	push   %eax
 804909d:	8d 83 30 d2 ff ff    	lea    -0x2dd0(%ebx),%eax
 80490a3:	50                   	push   %eax
 80490a4:	51                   	push   %ecx
 80490a5:	56                   	push   %esi
 80490a6:	c7 c0 16 92 04 08    	mov    $0x8049216,%eax
 80490ac:	50                   	push   %eax
 80490ad:	e8 8e ff ff ff       	call   8049040 <__libc_start_main@plt>
 80490b2:	f4                   	hlt    
 80490b3:	8b 1c 24             	mov    (%esp),%ebx
 80490b6:	c3                   	ret    
 80490b7:	66 90                	xchg   %ax,%ax
 80490b9:	66 90                	xchg   %ax,%ax
 80490bb:	66 90                	xchg   %ax,%ax
 80490bd:	66 90                	xchg   %ax,%ax
 80490bf:	90                   	nop

080490c0 <_dl_relocate_static_pie>:
 80490c0:	f3 c3                	repz ret 
 80490c2:	66 90                	xchg   %ax,%ax
 80490c4:	66 90                	xchg   %ax,%ax
 80490c6:	66 90                	xchg   %ax,%ax
 80490c8:	66 90                	xchg   %ax,%ax
 80490ca:	66 90                	xchg   %ax,%ax
 80490cc:	66 90                	xchg   %ax,%ax
 80490ce:	66 90                	xchg   %ax,%ax

080490d0 <__x86.get_pc_thunk.bx>:
 80490d0:	8b 1c 24             	mov    (%esp),%ebx
 80490d3:	c3                   	ret    
 80490d4:	66 90                	xchg   %ax,%ax
 80490d6:	66 90                	xchg   %ax,%ax
 80490d8:	66 90                	xchg   %ax,%ax
 80490da:	66 90                	xchg   %ax,%ax
 80490dc:	66 90                	xchg   %ax,%ax
 80490de:	66 90                	xchg   %ax,%ax

080490e0 <deregister_tm_clones>:
 80490e0:	b8 20 c0 04 08       	mov    $0x804c020,%eax
 80490e5:	3d 20 c0 04 08       	cmp    $0x804c020,%eax
 80490ea:	74 24                	je     8049110 <deregister_tm_clones+0x30>
 80490ec:	b8 00 00 00 00       	mov    $0x0,%eax
 80490f1:	85 c0                	test   %eax,%eax
 80490f3:	74 1b                	je     8049110 <deregister_tm_clones+0x30>
 80490f5:	55                   	push   %ebp
 80490f6:	89 e5                	mov    %esp,%ebp
 80490f8:	83 ec 14             	sub    $0x14,%esp
 80490fb:	68 20 c0 04 08       	push   $0x804c020
 8049100:	ff d0                	call   *%eax
 8049102:	83 c4 10             	add    $0x10,%esp
 8049105:	c9                   	leave  
 8049106:	c3                   	ret    
 8049107:	8d b4 26 00 00 00 00 	lea    0x0(%esi,%eiz,1),%esi
 804910e:	66 90                	xchg   %ax,%ax
 8049110:	c3                   	ret    
 8049111:	8d b4 26 00 00 00 00 	lea    0x0(%esi,%eiz,1),%esi
 8049118:	8d b4 26 00 00 00 00 	lea    0x0(%esi,%eiz,1),%esi
 804911f:	90                   	nop

08049120 <register_tm_clones>:
 8049120:	b8 20 c0 04 08       	mov    $0x804c020,%eax
 8049125:	2d 20 c0 04 08       	sub    $0x804c020,%eax
 804912a:	89 c2                	mov    %eax,%edx
 804912c:	c1 e8 1f             	shr    $0x1f,%eax
 804912f:	c1 fa 02             	sar    $0x2,%edx
 8049132:	01 d0                	add    %edx,%eax
 8049134:	d1 f8                	sar    %eax
 8049136:	74 20                	je     8049158 <register_tm_clones+0x38>
 8049138:	ba 00 00 00 00       	mov    $0x0,%edx
 804913d:	85 d2                	test   %edx,%edx
 804913f:	74 17                	je     8049158 <register_tm_clones+0x38>
 8049141:	55                   	push   %ebp
 8049142:	89 e5                	mov    %esp,%ebp
 8049144:	83 ec 10             	sub    $0x10,%esp
 8049147:	50                   	push   %eax
 8049148:	68 20 c0 04 08       	push   $0x804c020
 804914d:	ff d2                	call   *%edx
 804914f:	83 c4 10             	add    $0x10,%esp
 8049152:	c9                   	leave  
 8049153:	c3                   	ret    
 8049154:	8d 74 26 00          	lea    0x0(%esi,%eiz,1),%esi
 8049158:	c3                   	ret    
 8049159:	8d b4 26 00 00 00 00 	lea    0x0(%esi,%eiz,1),%esi

08049160 <__do_global_dtors_aux>:
 8049160:	f3 0f 1e fb          	endbr32 
 8049164:	80 3d 20 c0 04 08 00 	cmpb   $0x0,0x804c020
 804916b:	75 1b                	jne    8049188 <__do_global_dtors_aux+0x28>
 804916d:	55                   	push   %ebp
 804916e:	89 e5                	mov    %esp,%ebp
 8049170:	83 ec 08             	sub    $0x8,%esp
 8049173:	e8 68 ff ff ff       	call   80490e0 <deregister_tm_clones>
 8049178:	c6 05 20 c0 04 08 01 	movb   $0x1,0x804c020
 804917f:	c9                   	leave  
 8049180:	c3                   	ret    
 8049181:	8d b4 26 00 00 00 00 	lea    0x0(%esi,%eiz,1),%esi
 8049188:	c3                   	ret    
 8049189:	8d b4 26 00 00 00 00 	lea    0x0(%esi,%eiz,1),%esi

08049190 <frame_dummy>:
 8049190:	f3 0f 1e fb          	endbr32 
 8049194:	eb 8a                	jmp    8049120 <register_tm_clones>

08049196 <search>:
 8049196:	55                   	push   %ebp
 8049197:	89 e5                	mov    %esp,%ebp
 8049199:	83 ec 18             	sub    $0x18,%esp
 804919c:	c7 45 f4 00 00 00 60 	movl   $0x60000000,-0xc(%ebp)
 80491a3:	eb 66                	jmp    804920b <search+0x75>
 80491a5:	c7 45 f0 00 00 00 00 	movl   $0x0,-0x10(%ebp)
 80491ac:	eb 4a                	jmp    80491f8 <search+0x62>
 80491ae:	8b 55 f4             	mov    -0xc(%ebp),%edx
 80491b1:	8b 45 f0             	mov    -0x10(%ebp),%eax
 80491b4:	01 d0                	add    %edx,%eax
 80491b6:	83 ec 08             	sub    $0x8,%esp
 80491b9:	6a 00                	push   $0x0
 80491bb:	50                   	push   %eax
 80491bc:	e8 9f fe ff ff       	call   8049060 <access@plt>
 80491c1:	83 c4 10             	add    $0x10,%esp
 80491c4:	83 f8 f2             	cmp    $0xfffffff2,%eax
 80491c7:	74 3a                	je     8049203 <search+0x6d>
 80491c9:	8b 55 f4             	mov    -0xc(%ebp),%edx
 80491cc:	8b 45 f0             	mov    -0x10(%ebp),%eax
 80491cf:	01 d0                	add    %edx,%eax
 80491d1:	8b 00                	mov    (%eax),%eax
 80491d3:	3d 48 54 42 7b       	cmp    $0x7b425448,%eax
 80491d8:	75 1a                	jne    80491f4 <search+0x5e>
 80491da:	8b 55 f4             	mov    -0xc(%ebp),%edx
 80491dd:	8b 45 f0             	mov    -0x10(%ebp),%eax
 80491e0:	01 d0                	add    %edx,%eax
 80491e2:	83 ec 04             	sub    $0x4,%esp
 80491e5:	6a 24                	push   $0x24
 80491e7:	50                   	push   %eax
 80491e8:	6a 01                	push   $0x1
 80491ea:	e8 61 fe ff ff       	call   8049050 <write@plt>
 80491ef:	83 c4 10             	add    $0x10,%esp
 80491f2:	eb 20                	jmp    8049214 <search+0x7e>
 80491f4:	83 45 f0 04          	addl   $0x4,-0x10(%ebp)
 80491f8:	81 7d f0 ff 0f 00 00 	cmpl   $0xfff,-0x10(%ebp)
 80491ff:	76 ad                	jbe    80491ae <search+0x18>
 8049201:	eb 01                	jmp    8049204 <search+0x6e>
 8049203:	90                   	nop
 8049204:	81 45 f4 00 10 00 00 	addl   $0x1000,-0xc(%ebp)
 804920b:	81 7d f4 00 00 00 f7 	cmpl   $0xf7000000,-0xc(%ebp)
 8049212:	76 91                	jbe    80491a5 <search+0xf>
 8049214:	c9                   	leave  
 8049215:	c3                   	ret    

08049216 <main>:
 8049216:	55                   	push   %ebp
 8049217:	89 e5                	mov    %esp,%ebp
 8049219:	83 e4 f0             	and    $0xfffffff0,%esp
 804921c:	e8 75 ff ff ff       	call   8049196 <search>
 8049221:	b8 00 00 00 00       	mov    $0x0,%eax
 8049226:	c9                   	leave  
 8049227:	c3                   	ret    
 8049228:	66 90                	xchg   %ax,%ax
 804922a:	66 90                	xchg   %ax,%ax
 804922c:	66 90                	xchg   %ax,%ax
 804922e:	66 90                	xchg   %ax,%ax

08049230 <__libc_csu_init>:
 8049230:	55                   	push   %ebp
 8049231:	57                   	push   %edi
 8049232:	56                   	push   %esi
 8049233:	53                   	push   %ebx
 8049234:	e8 97 fe ff ff       	call   80490d0 <__x86.get_pc_thunk.bx>
 8049239:	81 c3 c7 2d 00 00    	add    $0x2dc7,%ebx
 804923f:	83 ec 0c             	sub    $0xc,%esp
 8049242:	8b 6c 24 28          	mov    0x28(%esp),%ebp
 8049246:	8d b3 08 ff ff ff    	lea    -0xf8(%ebx),%esi
 804924c:	e8 af fd ff ff       	call   8049000 <_init>
 8049251:	8d 83 04 ff ff ff    	lea    -0xfc(%ebx),%eax
 8049257:	29 c6                	sub    %eax,%esi
 8049259:	c1 fe 02             	sar    $0x2,%esi
 804925c:	85 f6                	test   %esi,%esi
 804925e:	74 25                	je     8049285 <__libc_csu_init+0x55>
 8049260:	31 ff                	xor    %edi,%edi
 8049262:	8d b6 00 00 00 00    	lea    0x0(%esi),%esi
 8049268:	83 ec 04             	sub    $0x4,%esp
 804926b:	55                   	push   %ebp
 804926c:	ff 74 24 2c          	push   0x2c(%esp)
 8049270:	ff 74 24 2c          	push   0x2c(%esp)
 8049274:	ff 94 bb 04 ff ff ff 	call   *-0xfc(%ebx,%edi,4)
 804927b:	83 c7 01             	add    $0x1,%edi
 804927e:	83 c4 10             	add    $0x10,%esp
 8049281:	39 fe                	cmp    %edi,%esi
 8049283:	75 e3                	jne    8049268 <__libc_csu_init+0x38>
 8049285:	83 c4 0c             	add    $0xc,%esp
 8049288:	5b                   	pop    %ebx
 8049289:	5e                   	pop    %esi
 804928a:	5f                   	pop    %edi
 804928b:	5d                   	pop    %ebp
 804928c:	c3                   	ret    
 804928d:	8d 76 00             	lea    0x0(%esi),%esi

08049290 <__libc_csu_fini>:
 8049290:	f3 c3                	repz ret 

Disassembly of section .fini:

08049294 <_fini>:
 8049294:	53                   	push   %ebx
 8049295:	83 ec 08             	sub    $0x8,%esp
 8049298:	e8 33 fe ff ff       	call   80490d0 <__x86.get_pc_thunk.bx>
 804929d:	81 c3 63 2d 00 00    	add    $0x2d63,%ebx
 80492a3:	83 c4 08             	add    $0x8,%esp
 80492a6:	5b                   	pop    %ebx
 80492a7:	c3                   	ret    
